; Function Attrs: mustprogress nofree nounwind null_pointer_is_valid sspstrong willreturn memory(read, inaccessiblemem: none) uwtable
define internal range(i32 0, 2) i32 @ieee1905_fragment_equal(ptr noundef readonly captures(address_is_null) %0, ptr noundef readonly captures(address_is_null) %1) #5 {
  %3 = icmp ne ptr %0, null
  %4 = icmp ne ptr %1, null
  %or.cond = and i1 %3, %4
  br i1 %or.cond, label %5, label %addresses_equal.exit

5:                                                ; preds = %2
  %6 = getelementptr inbounds nuw i8, ptr %0, i64 52
  %7 = load i8, ptr %6, align 4
  %8 = getelementptr inbounds nuw i8, ptr %1, i64 52
  %9 = load i8, ptr %8, align 4
  %10 = icmp eq i8 %7, %9
  br i1 %10, label %11, label %addresses_equal.exit

11:                                               ; preds = %5
  %12 = getelementptr inbounds nuw i8, ptr %0, i64 48
  %13 = load i32, ptr %12, align 8
  %14 = getelementptr inbounds nuw i8, ptr %1, i64 48
  %15 = load i32, ptr %14, align 8
  %16 = icmp eq i32 %13, %15
  br i1 %16, label %17, label %addresses_equal.exit

17:                                               ; preds = %11
  %18 = load i32, ptr %0, align 8
  %19 = load i32, ptr %1, align 8
  %20 = icmp eq i32 %18, %19
  br i1 %20, label %21, label %addresses_equal.exit

21:                                               ; preds = %17
  %22 = getelementptr inbounds nuw i8, ptr %0, i64 4
  %23 = load i32, ptr %22, align 4
  %24 = getelementptr inbounds nuw i8, ptr %1, i64 4
  %25 = load i32, ptr %24, align 4
  %26 = icmp eq i32 %23, %25
  br i1 %26, label %27, label %addresses_equal.exit

27:                                               ; preds = %21
  %28 = icmp eq i32 %23, 0
  br i1 %28, label %addresses_equal.exit, label %29

29:                                               ; preds = %27
  %30 = getelementptr inbounds nuw i8, ptr %0, i64 8
  %31 = load ptr, ptr %30, align 8
  %32 = getelementptr inbounds nuw i8, ptr %1, i64 8
  %33 = load ptr, ptr %32, align 8
  %34 = sext i32 %23 to i64
  %bcmp.i = tail call i32 @bcmp(ptr %31, ptr %33, i64 %34)
  %35 = icmp eq i32 %bcmp.i, 0
  br i1 %35, label %36, label %addresses_equal.exit

36:                                               ; preds = %29
  %37 = getelementptr inbounds nuw i8, ptr %0, i64 8
  %38 = load ptr, ptr %37, align 8
  %39 = getelementptr inbounds nuw i8, ptr %1, i64 8
  %40 = load ptr, ptr %39, align 8
  %41 = sext i32 %23 to i64
  %bcmp.i16 = tail call i32 @bcmp(ptr %38, ptr %40, i64 %41)
  %42 = icmp eq i32 %bcmp.i16, 0
  %spec.select = zext i1 %42 to i32
  br label %addresses_equal.exit

addresses_equal.exit:                             ; preds = %36, %27, %29, %21, %17, %5, %11, %2
  %.0 = phi i32 [ 0, %2 ], [ 0, %11 ], [ 0, %5 ], [ 0, %17 ], [ 0, %21 ], [ 0, %29 ], [ 1, %27 ], [ %spec.select, %36 ]
  ret i32 %.0
}